target datalayout = "e-m:e-p270:32:32-p271:32:32-p272:64:64-i64:64-i128:128-f80:128-n8:16:32:64-S128"
target triple = "x86_64-unknown-linux-gnu"

; Function Attrs: mustprogress nounwind uwtable
define linkonce_odr noundef ptr @_ZN6icu_758Collator13fromUCollatorEPK9UCollator(ptr noundef %uc) #1 comdat align 2 {
entry:
  %uc.addr = alloca ptr, align 8
  store ptr %uc, ptr %uc.addr, align 8
  %0 = load ptr, ptr %uc.addr, align 8
  ret ptr %0
}

; Function Attrs: mustprogress uwtable
define i32 @ucol_strcoll_75(ptr noundef %coll, ptr noundef %source, i32 noundef %sourceLength, ptr noundef %target, i32 noundef %targetLength) #0 {
entry:
  %coll.addr = alloca ptr, align 8
  %source.addr = alloca ptr, align 8
  %sourceLength.addr = alloca i32, align 4
  %target.addr = alloca ptr, align 8
  %targetLength.addr = alloca i32, align 4
  %status = alloca i32, align 4
  %returnVal = alloca i32, align 4
  store ptr %coll, ptr %coll.addr, align 8
  store ptr %source, ptr %source.addr, align 8
  store i32 %sourceLength, ptr %sourceLength.addr, align 4
  store ptr %target, ptr %target.addr, align 8
  store i32 %targetLength, ptr %targetLength.addr, align 4
  store i32 0, ptr %status, align 4
  %0 = load ptr, ptr %coll.addr, align 8
  %call = call noundef ptr @_ZN6icu_758Collator13fromUCollatorEPK9UCollator(ptr noundef %0)
  %1 = load ptr, ptr %source.addr, align 8
  %2 = load i32, ptr %sourceLength.addr, align 4
  %3 = load ptr, ptr %target.addr, align 8
  %4 = load i32, ptr %targetLength.addr, align 4
  %vtable = load ptr, ptr %call, align 8
  %vfn = getelementptr inbounds ptr, ptr %vtable, i64 11
  %5 = load ptr, ptr %vfn, align 8
  %call1 = call noundef i32 %5(ptr noundef nonnull align 8 dereferenceable(8) %call, ptr noundef %1, i32 noundef %2, ptr noundef %3, i32 noundef %4, ptr noundef nonnull align 4 dereferenceable(4) %status)
  store i32 %call1, ptr %returnVal, align 4
  %6 = load i32, ptr %returnVal, align 4
  ret i32 %6
}

; Function Attrs: mustprogress uwtable
define signext i8 @ucol_equal_75(ptr noundef %coll, ptr noundef %source, i32 noundef %sourceLength, ptr noundef %target, i32 noundef %targetLength) #0 {
entry:
  %coll.addr = alloca ptr, align 8
  %source.addr = alloca ptr, align 8
  %sourceLength.addr = alloca i32, align 4
  %target.addr = alloca ptr, align 8
  %targetLength.addr = alloca i32, align 4
  store ptr %coll, ptr %coll.addr, align 8
  store ptr %source, ptr %source.addr, align 8
  store i32 %sourceLength, ptr %sourceLength.addr, align 4
  store ptr %target, ptr %target.addr, align 8
  store i32 %targetLength, ptr %targetLength.addr, align 4
  %0 = load ptr, ptr %coll.addr, align 8
  %1 = load ptr, ptr %source.addr, align 8
  %2 = load i32, ptr %sourceLength.addr, align 4
  %3 = load ptr, ptr %target.addr, align 8
  %4 = load i32, ptr %targetLength.addr, align 4
  %call = call i32 @ucol_strcoll_75(ptr noundef %0, ptr noundef %1, i32 noundef %2, ptr noundef %3, i32 noundef %4)
  %cmp = icmp eq i32 %call, 0
  %conv = zext i1 %cmp to i8
  ret i8 %conv
}